0000002a <__ctors_end>:
  2a:	11 24       	eor	r1, r1
  2c:	1f be       	out	0x3f, r1	; 63
  2e:	cf ed       	ldi	r28, 0xDF	; 223
  30:	cd bf       	out	0x3d, r28	; 61

00000032 <__do_copy_data>:
  32:	10 e0       	ldi	r17, 0x00	; 0
  34:	a0 e6       	ldi	r26, 0x60	; 96
  36:	b0 e0       	ldi	r27, 0x00	; 0
  38:	ee e0       	ldi	r30, 0x0E	; 14
  3a:	f1 e0       	ldi	r31, 0x01	; 1
  3c:	02 c0       	rjmp	.+4      	; 0x42 <__SREG__+0x3>
  3e:	05 90       	lpm	r0, Z+
  40:	0d 92       	st	X+, r0
  42:	a0 36       	cpi	r26, 0x60	; 96
  44:	b1 07       	cpc	r27, r17
  46:	d9 f7       	brne	.-10     	; 0x3e <__SP_L__+0x1>

00000048 <__do_clear_bss>:
  48:	20 e0       	ldi	r18, 0x00	; 0
  4a:	a0 e6       	ldi	r26, 0x60	; 96
  4c:	b0 e0       	ldi	r27, 0x00	; 0
  4e:	01 c0       	rjmp	.+2      	; 0x52 <.do_clear_bss_start>

00000050 <.do_clear_bss_loop>:
  50:	1d 92       	st	X+, r1

00000052 <.do_clear_bss_start>:
  52:	a1 36       	cpi	r26, 0x61	; 97
  54:	b2 07       	cpc	r27, r18
  56:	e1 f7       	brne	.-8      	; 0x50 <.do_clear_bss_loop>
  58:	02 d0       	rcall	.+4      	; 0x5e <main>
  5a:	57 c0       	rjmp	.+174    	; 0x10a <_exit>

0000005c <__bad_interrupt>:
  5c:	d1 cf       	rjmp	.-94     	; 0x0 <__vectors>

0000005e <main>:
  5e:	cf 93       	push	r28
  60:	df 93       	push	r29
  62:	00 d0       	rcall	.+0      	; 0x64 <main+0x6>
  64:	cd b7       	in	r28, 0x3d	; 61
  66:	dd 27       	eor	r29, r29
  68:	45 e5       	ldi	r20, 0x55	; 85
  6a:	30 e2       	ldi	r19, 0x20	; 32
  6c:	48 bb       	out	0x18, r20	; 24
  6e:	80 b3       	in	r24, 0x10	; 16
  70:	80 93 60 00 	sts	0x0060, r24	; 0x800060 <__DATA_REGION_ORIGIN__>
  74:	80 b3       	in	r24, 0x10	; 16
  76:	80 b3       	in	r24, 0x10	; 16
  78:	8f 3f       	cpi	r24, 0xFF	; 255
  7a:	09 f4       	brne	.+2      	; 0x7e <main+0x20>
  7c:	89 b3       	in	r24, 0x19	; 25
  7e:	80 b3       	in	r24, 0x10	; 16
  80:	8f 3f       	cpi	r24, 0xFF	; 255
  82:	09 f0       	breq	.+2      	; 0x86 <main+0x28>
  84:	89 b3       	in	r24, 0x19	; 25
  86:	80 b3       	in	r24, 0x10	; 16
  88:	88 b3       	in	r24, 0x18	; 24
  8a:	90 e0       	ldi	r25, 0x00	; 0
  8c:	80 95       	com	r24
  8e:	90 95       	com	r25
  90:	88 bb       	out	0x18, r24	; 24
  92:	88 b3       	in	r24, 0x18	; 24
  94:	88 70       	andi	r24, 0x08	; 8
  96:	88 bb       	out	0x18, r24	; 24
  98:	c4 9a       	sbi	0x18, 4	; 24
  9a:	88 b3       	in	r24, 0x18	; 24
  9c:	83 27       	eor	r24, r19
  9e:	88 bb       	out	0x18, r24	; 24
  a0:	88 b3       	in	r24, 0x18	; 24
  a2:	90 e0       	ldi	r25, 0x00	; 0
  a4:	88 0f       	add	r24, r24
  a6:	99 1f       	adc	r25, r25
  a8:	88 0f       	add	r24, r24
  aa:	99 1f       	adc	r25, r25
  ac:	88 bb       	out	0x18, r24	; 24
  ae:	88 b3       	in	r24, 0x18	; 24
  b0:	90 e0       	ldi	r25, 0x00	; 0
  b2:	54 e0       	ldi	r21, 0x04	; 4
  b4:	95 95       	asr	r25
  b6:	87 95       	ror	r24
  b8:	5a 95       	dec	r21
  ba:	e1 f7       	brne	.-8      	; 0xb4 <main+0x56>
  bc:	88 bb       	out	0x18, r24	; 24
  be:	89 b3       	in	r24, 0x19	; 25
  c0:	89 83       	std	Y+1, r24	; 0x01
  c2:	89 b3       	in	r24, 0x19	; 25
  c4:	8f 5f       	subi	r24, 0xFF	; 255
  c6:	89 bb       	out	0x19, r24	; 25
  c8:	89 81       	ldd	r24, Y+1	; 0x01
  ca:	88 bb       	out	0x18, r24	; 24
  cc:	89 b3       	in	r24, 0x19	; 25
  ce:	20 b3       	in	r18, 0x10	; 16
  d0:	90 e0       	ldi	r25, 0x00	; 0
  d2:	82 1b       	sub	r24, r18
  d4:	91 09       	sbc	r25, r1
  d6:	c3 96       	adiw	r24, 0x33	; 51
  d8:	88 bb       	out	0x18, r24	; 24
  da:	89 b3       	in	r24, 0x19	; 25
  dc:	8a 83       	std	Y+2, r24	; 0x02
  de:	89 b3       	in	r24, 0x19	; 25
  e0:	81 50       	subi	r24, 0x01	; 1
  e2:	89 bb       	out	0x19, r24	; 25
  e4:	8a 81       	ldd	r24, Y+2	; 0x02
  e6:	88 bb       	out	0x18, r24	; 24
  e8:	89 b3       	in	r24, 0x19	; 25
  ea:	2f ef       	ldi	r18, 0xFF	; 255
  ec:	28 0f       	add	r18, r24
  ee:	29 bb       	out	0x19, r18	; 25
  f0:	90 b3       	in	r25, 0x10	; 16
  f2:	81 e0       	ldi	r24, 0x01	; 1
  f4:	89 0f       	add	r24, r25
  f6:	80 bb       	out	0x10, r24	; 16
  f8:	82 0f       	add	r24, r18
  fa:	88 bb       	out	0x18, r24	; 24
  fc:	80 b3       	in	r24, 0x10	; 16
  fe:	83 70       	andi	r24, 0x03	; 3
 100:	88 bb       	out	0x18, r24	; 24
 102:	80 b3       	in	r24, 0x10	; 16
 104:	81 70       	andi	r24, 0x01	; 1
 106:	88 bb       	out	0x18, r24	; 24
 108:	b1 cf       	rjmp	.-158    	; 0x6c <main+0xe>

0000010a <_exit>:
 10a:	f8 94       	cli

0000010c <__stop_program>:
 10c:	ff cf       	rjmp	.-2      	; 0x10c <__stop_program>
